target datalayout = "e-m:e-p270:32:32-p271:32:32-p272:64:64-i64:64-i128:128-f80:128-n8:16:32:64-S128"
target triple = "x86_64-pc-linux-gnu"

@.str.135 = private unnamed_addr constant [2 x i8] c"\0A\00", align 1
@.str.174 = private unnamed_addr constant [42 x i8] c"%4d %9.2e %14.6e %9.2e %9.2e %9.2e %9.2e \00", align 1
@.str.175 = private unnamed_addr constant [7 x i8] c"%7.2f \00", align 1
@.str.176 = private unnamed_addr constant [5 x i8] c"%7s \00", align 1
@.str.177 = private unnamed_addr constant [2 x i8] c"-\00", align 1
@.str.178 = private unnamed_addr constant [6 x i8] c"%9.5e\00", align 1
@.str.179 = private unnamed_addr constant [4 x i8] c" - \00", align 1

; Function Attrs: mustprogress uwtable
define void @_ZNK6casadi17Feasiblesqpmethod15print_iterationExddddddddNSt7__cxx1112basic_stringIcSt11char_traitsIcESaIcEEE(ptr noundef nonnull align 8 dereferenceable(2392) %0, i64 noundef %1, double noundef %2, double noundef %3, double noundef %4, double noundef %5, double noundef %6, double noundef %7, double noundef %8, double noundef %9, ptr noundef %10) #4 align 2 {
  %12 = alloca ptr, align 8
  %13 = alloca i64, align 8
  %14 = alloca double, align 8
  %15 = alloca double, align 8
  %16 = alloca double, align 8
  %17 = alloca double, align 8
  %18 = alloca double, align 8
  %19 = alloca double, align 8
  %20 = alloca double, align 8
  %21 = alloca double, align 8
  %22 = alloca ptr, align 8
  store ptr %0, ptr %12, align 8
  store i64 %1, ptr %13, align 8
  store double %2, ptr %14, align 8
  store double %3, ptr %15, align 8
  store double %4, ptr %16, align 8
  store double %5, ptr %17, align 8
  store double %6, ptr %18, align 8
  store double %7, ptr %19, align 8
  store double %8, ptr %20, align 8
  store double %9, ptr %21, align 8
  store ptr %10, ptr %22, align 8
  %23 = load ptr, ptr %12, align 8
  %24 = load i64, ptr %13, align 8
  %25 = load double, ptr %15, align 8
  %26 = load double, ptr %14, align 8
  %27 = load double, ptr %16, align 8
  %28 = load double, ptr %17, align 8
  %29 = load double, ptr %18, align 8
  %30 = load double, ptr %19, align 8
  call void (ptr, ptr, ...) @_ZNK6casadi13ProtoFunction5printEPKcz(ptr noundef nonnull align 8 dereferenceable(168) %23, ptr noundef @.str.174, i64 noundef %24, double noundef %25, double noundef %26, double noundef %27, double noundef %28, double noundef %29, double noundef %30)
  %31 = load double, ptr %20, align 8
  %32 = fcmp ogt double %31, 0.000000e+00
  br i1 %32, label %33, label %36

33:                                               ; preds = %11
  %34 = load double, ptr %20, align 8
  %35 = call double @log10(double noundef %34) #3
  call void (ptr, ptr, ...) @_ZNK6casadi13ProtoFunction5printEPKcz(ptr noundef nonnull align 8 dereferenceable(168) %23, ptr noundef @.str.175, double noundef %35)
  br label %37

36:                                               ; preds = %11
  call void (ptr, ptr, ...) @_ZNK6casadi13ProtoFunction5printEPKcz(ptr noundef nonnull align 8 dereferenceable(168) %23, ptr noundef @.str.176, ptr noundef @.str.177)
  br label %37

37:                                               ; preds = %36, %33
  %38 = load double, ptr %21, align 8
  call void (ptr, ptr, ...) @_ZNK6casadi13ProtoFunction5printEPKcz(ptr noundef nonnull align 8 dereferenceable(168) %23, ptr noundef @.str.178, double noundef %38)
  call void (ptr, ptr, ...) @_ZNK6casadi13ProtoFunction5printEPKcz(ptr noundef nonnull align 8 dereferenceable(168) %23, ptr noundef @.str.179)
  %39 = call noundef ptr @_ZNKSt7__cxx1112basic_stringIcSt11char_traitsIcESaIcEE5c_strEv(ptr noundef nonnull align 8 dereferenceable(32) %10) #3
  call void (ptr, ptr, ...) @_ZNK6casadi13ProtoFunction5printEPKcz(ptr noundef nonnull align 8 dereferenceable(168) %23, ptr noundef %39)
  call void (ptr, ptr, ...) @_ZNK6casadi13ProtoFunction5printEPKcz(ptr noundef nonnull align 8 dereferenceable(168) %23, ptr noundef @.str.135)
  ret void
}