; Function Attrs: mustprogress uwtable
define void @_ZNK6casadi17Feasiblesqpmethod15print_iterationExddddddddNSt7__cxx1112basic_stringIcSt11char_traitsIcESaIcEEE(ptr noundef nonnull align 8 dereferenceable(2392) %0, i64 noundef %1, double noundef %2, double noundef %3, double noundef %4, double noundef %5, double noundef %6, double noundef %7, double noundef %8, double noundef %9, ptr noundef %10) local_unnamed_addr #3 align 2 {
  tail call void (ptr, ptr, ...) @_ZNK6casadi13ProtoFunction5printEPKcz(ptr noundef nonnull align 8 dereferenceable(168) %0, ptr noundef nonnull @.str.174, i64 noundef %1, double noundef %3, double noundef %2, double noundef %4, double noundef %5, double noundef %6, double noundef %7)
  %12 = fcmp ogt double %8, 0.000000e+00
  br i1 %12, label %13, label %15

13:                                               ; preds = %11
  %14 = tail call double @log10(double noundef %8) #24
  tail call void (ptr, ptr, ...) @_ZNK6casadi13ProtoFunction5printEPKcz(ptr noundef nonnull align 8 dereferenceable(168) %0, ptr noundef nonnull @.str.175, double noundef %14)
  br label %16

15:                                               ; preds = %11
  tail call void (ptr, ptr, ...) @_ZNK6casadi13ProtoFunction5printEPKcz(ptr noundef nonnull align 8 dereferenceable(168) %0, ptr noundef nonnull @.str.176, ptr noundef nonnull @.str.177)
  br label %16

16:                                               ; preds = %15, %13
  tail call void (ptr, ptr, ...) @_ZNK6casadi13ProtoFunction5printEPKcz(ptr noundef nonnull align 8 dereferenceable(168) %0, ptr noundef nonnull @.str.178, double noundef %9)
  tail call void (ptr, ptr, ...) @_ZNK6casadi13ProtoFunction5printEPKcz(ptr noundef nonnull align 8 dereferenceable(168) %0, ptr noundef nonnull @.str.179)
  %17 = tail call noundef ptr @_ZNKSt7__cxx1112basic_stringIcSt11char_traitsIcESaIcEE5c_strEv(ptr noundef nonnull align 8 dereferenceable(32) %10) #24
  tail call void (ptr, ptr, ...) @_ZNK6casadi13ProtoFunction5printEPKcz(ptr noundef nonnull align 8 dereferenceable(168) %0, ptr noundef %17)
  tail call void (ptr, ptr, ...) @_ZNK6casadi13ProtoFunction5printEPKcz(ptr noundef nonnull align 8 dereferenceable(168) %0, ptr noundef nonnull @.str.135)
  ret void
}